; ModuleID = 'source-C-CXX/25/162.c'
source_filename = "source-C-CXX/25/162.c"
target datalayout = "e-m:e-p270:32:32-p271:32:32-p272:64:64-i64:64-f80:128-n8:16:32:64-S128"
target triple = "x86_64-pc-linux-gnu"

; Function Attrs: nounwind sspstrong uwtable
define dso_local i32 @main() local_unnamed_addr #0 {
  %1 = tail call noalias align 16 dereferenceable_or_null(1000) i8* @malloc(i64 1000) #5
  %2 = tail call i32 (i8*, ...) bitcast (i32 (...)* @gets to i32 (i8*, ...)*)(i8* %1) #5
  %3 = tail call i64 @strlen(i8* noundef nonnull dereferenceable(1) %1) #6
  %4 = trunc i64 %3 to i32
  %5 = icmp sgt i32 %4, 0
  br i1 %5, label %6, label %22

6:                                                ; preds = %0, %18
  %7 = phi i8* [ %20, %18 ], [ %1, %0 ]
  %8 = phi i32 [ %19, %18 ], [ 0, %0 ]
  %9 = load i8, i8* %7, align 1, !tbaa !5
  %10 = icmp eq i8 %9, 32
  br i1 %10, label %11, label %15

11:                                               ; preds = %6
  %12 = getelementptr inbounds i8, i8* %7, i64 1
  %13 = load i8, i8* %12, align 1, !tbaa !5
  %14 = icmp eq i8 %13, 32
  br i1 %14, label %18, label %15

15:                                               ; preds = %11, %6
  %16 = sext i8 %9 to i32
  %17 = tail call i32 @putchar(i32 %16)
  br label %18

18:                                               ; preds = %11, %15
  %19 = add nuw nsw i32 %8, 1
  %20 = getelementptr inbounds i8, i8* %7, i64 1
  %21 = icmp eq i32 %19, %4
  br i1 %21, label %22, label %6, !llvm.loop !8

22:                                               ; preds = %18, %0
  ret i32 0
}

; Function Attrs: inaccessiblememonly mustprogress nofree nounwind willreturn
declare noalias noundef align 16 i8* @malloc(i64 noundef) local_unnamed_addr #1

declare i32 @gets(...) local_unnamed_addr #2

; Function Attrs: argmemonly mustprogress nofree nounwind readonly willreturn
declare i64 @strlen(i8* nocapture) local_unnamed_addr #3

; Function Attrs: nofree nounwind
declare noundef i32 @putchar(i32 noundef) local_unnamed_addr #4


!llvm.module.flags = !{!0, !1, !2, !3}
!llvm.ident = !{!4}

!0 = !{i32 1, !"wchar_size", i32 4}
!1 = !{i32 7, !"PIC Level", i32 2}
!2 = !{i32 7, !"PIE Level", i32 2}
!3 = !{i32 7, !"uwtable", i32 1}
!4 = !{!"clang version 13.0.0"}
!5 = !{!6, !6, i64 0}
!6 = !{!"omnipotent char", !7, i64 0}
!7 = !{!"Simple C/C++ TBAA"}
!8 = distinct !{!8, !9}
!9 = !{!"llvm.loop.mustprogress"}
